target datalayout = "e-m:e-p270:32:32-p271:32:32-p272:64:64-i64:64-i128:128-f80:128-n8:16:32:64-S128"
target triple = "x86_64-pc-linux-gnu"

%struct.rb_data_type_struct = type { ptr, %struct.anon, ptr, ptr, i64 }
%struct.anon = type { ptr, ptr, ptr, ptr, [1 x ptr] }
%struct.strscanner = type { i64, i64, i64, i64, %struct.re_registers, i64, i8 }
%struct.re_registers = type { i32, i32, ptr, ptr }

@strscanner_type = internal constant %struct.rb_data_type_struct { ptr @.str.2, %struct.anon { ptr @strscan_mark, ptr @strscan_free, ptr @strscan_memsize, ptr null, [1 x ptr] zeroinitializer }, ptr null, ptr null, i64 1 }, align 8
@rb_eArgError = external global i64, align 8
@.str.66 = private unnamed_addr constant [35 x i8] c"uninitialized StringScanner object\00", align 1

; Function Attrs: inlinehint nounwind sspstrong willreturn memory(none) uwtable
define internal i64 @RB_INT2FIX(i64 noundef %0) #7 {
  %2 = alloca i64, align 8
  %3 = alloca i64, align 8
  %4 = alloca i64, align 8
  %5 = alloca i64, align 8
  %6 = alloca i64, align 8
  %7 = alloca i64, align 8
  store i64 %0, ptr %2, align 8, !tbaa !6
  call void @llvm.lifetime.start.p0(i64 8, ptr %3) #23
  %8 = load i64, ptr %2, align 8, !tbaa !6
  store i64 %8, ptr %3, align 8, !tbaa !6
  call void @llvm.lifetime.start.p0(i64 8, ptr %4) #23
  %9 = load i64, ptr %3, align 8, !tbaa !6
  %10 = shl i64 %9, 1
  %11 = add i64 %10, 1
  store i64 %11, ptr %4, align 8, !tbaa !6
  call void @llvm.lifetime.start.p0(i64 8, ptr %5) #23
  %12 = load i64, ptr %4, align 8, !tbaa !6
  store i64 %12, ptr %5, align 8, !tbaa !6
  call void @llvm.lifetime.start.p0(i64 8, ptr %6) #23
  %13 = load i64, ptr %5, align 8, !tbaa !6
  store i64 %13, ptr %6, align 8, !tbaa !6
  call void @llvm.lifetime.start.p0(i64 8, ptr %7) #23
  %14 = load i64, ptr %6, align 8, !tbaa !6
  store i64 %14, ptr %7, align 8, !tbaa !6
  %15 = load i64, ptr %7, align 8, !tbaa !6
  call void @llvm.lifetime.end.p0(i64 8, ptr %7) #23
  call void @llvm.lifetime.end.p0(i64 8, ptr %6) #23
  call void @llvm.lifetime.end.p0(i64 8, ptr %5) #23
  call void @llvm.lifetime.end.p0(i64 8, ptr %4) #23
  call void @llvm.lifetime.end.p0(i64 8, ptr %3) #23
  ret i64 %15
}

; Function Attrs: inlinehint nounwind sspstrong uwtable
define internal i64 @rb_long2num_inline(i64 noundef %0) #4 {
  %2 = alloca i64, align 8
  %3 = alloca i64, align 8
  store i64 %0, ptr %3, align 8, !tbaa !6
  %4 = load i64, ptr %3, align 8, !tbaa !6
  %5 = icmp slt i64 %4, 4611686018427387904
  br i1 %5, label %6, label %12

6:                                                ; preds = %1
  %7 = load i64, ptr %3, align 8, !tbaa !6
  %8 = icmp sge i64 %7, -4611686018427387904
  br i1 %8, label %9, label %12

9:                                                ; preds = %6
  %10 = load i64, ptr %3, align 8, !tbaa !6
  %11 = call i64 @RB_INT2FIX(i64 noundef %10) #24
  store i64 %11, ptr %2, align 8
  br label %15

12:                                               ; preds = %6, %1
  %13 = load i64, ptr %3, align 8, !tbaa !6
  %14 = call i64 @rb_int2big(i64 noundef %13)
  store i64 %14, ptr %2, align 8
  br label %15

15:                                               ; preds = %12, %9
  %16 = load i64, ptr %2, align 8
  ret i64 %16
}

; Function Attrs: inlinehint nounwind sspstrong willreturn memory(none) uwtable
define internal zeroext i1 @RB_NIL_P(i64 noundef %0) #7 {
  %2 = alloca i64, align 8
  store i64 %0, ptr %2, align 8, !tbaa !6
  %3 = load i64, ptr %2, align 8, !tbaa !6
  %4 = icmp eq i64 %3, 4
  ret i1 %4
}

; Function Attrs: nounwind sspstrong uwtable
define internal ptr @check_strscan(i64 noundef %0) #0 {
  %2 = alloca i64, align 8
  store i64 %0, ptr %2, align 8, !tbaa !6
  %3 = load i64, ptr %2, align 8, !tbaa !6
  %4 = call ptr @rb_check_typeddata(i64 noundef %3, ptr noundef @strscanner_type)
  ret ptr %4
}

; Function Attrs: nounwind sspstrong uwtable
define internal i64 @strscan_matched_size(i64 noundef %0) #0 {
  %2 = alloca i64, align 8
  %3 = alloca i64, align 8
  %4 = alloca ptr, align 8
  %5 = alloca i32, align 4
  store i64 %0, ptr %3, align 8, !tbaa !6
  call void @llvm.lifetime.start.p0(i64 8, ptr %4) #23
  br label %6

6:                                                ; preds = %1
  %7 = load i64, ptr %3, align 8, !tbaa !6
  %8 = call ptr @check_strscan(i64 noundef %7)
  store ptr %8, ptr %4, align 8, !tbaa !15
  %9 = load ptr, ptr %4, align 8, !tbaa !15
  %10 = getelementptr inbounds nuw %struct.strscanner, ptr %9, i32 0, i32 1
  %11 = load i64, ptr %10, align 8, !tbaa !22
  %12 = call zeroext i1 @RB_NIL_P(i64 noundef %11) #24
  br i1 %12, label %13, label %15

13:                                               ; preds = %6
  %14 = load i64, ptr @rb_eArgError, align 8, !tbaa !6
  call void (i64, ptr, ...) @rb_raise(i64 noundef %14, ptr noundef @.str.66) #27
  unreachable

15:                                               ; preds = %6
  br label %16

16:                                               ; preds = %15
  br label %17

17:                                               ; preds = %16
  %18 = load ptr, ptr %4, align 8, !tbaa !15
  %19 = getelementptr inbounds nuw %struct.strscanner, ptr %18, i32 0, i32 0
  %20 = load i64, ptr %19, align 8, !tbaa !17
  %21 = and i64 %20, 1
  %22 = icmp ne i64 %21, 0
  br i1 %22, label %24, label %23

23:                                               ; preds = %17
  store i64 4, ptr %2, align 8
  store i32 1, ptr %5, align 4
  br label %39

24:                                               ; preds = %17
  %25 = load ptr, ptr %4, align 8, !tbaa !15
  %26 = getelementptr inbounds nuw %struct.strscanner, ptr %25, i32 0, i32 4
  %27 = getelementptr inbounds nuw %struct.re_registers, ptr %26, i32 0, i32 3
  %28 = load ptr, ptr %27, align 8, !tbaa !30
  %29 = getelementptr inbounds i64, ptr %28, i64 0
  %30 = load i64, ptr %29, align 8, !tbaa !6
  %31 = load ptr, ptr %4, align 8, !tbaa !15
  %32 = getelementptr inbounds nuw %struct.strscanner, ptr %31, i32 0, i32 4
  %33 = getelementptr inbounds nuw %struct.re_registers, ptr %32, i32 0, i32 2
  %34 = load ptr, ptr %33, align 8, !tbaa !29
  %35 = getelementptr inbounds i64, ptr %34, i64 0
  %36 = load i64, ptr %35, align 8, !tbaa !6
  %37 = sub nsw i64 %30, %36
  %38 = call i64 @rb_long2num_inline(i64 noundef %37)
  store i64 %38, ptr %2, align 8
  store i32 1, ptr %5, align 4
  br label %39

39:                                               ; preds = %24, %23
  call void @llvm.lifetime.end.p0(i64 8, ptr %4) #23
  %40 = load i64, ptr %2, align 8
  ret i64 %40
}