; Function Attrs: nounwind sspstrong uwtable
define internal i64 @strscan_matched_size(i64 noundef %0) #0 {
  %2 = tail call ptr @rb_check_typeddata(i64 noundef %0, ptr noundef nonnull @strscanner_type) #12
  %3 = getelementptr inbounds nuw i8, ptr %2, i64 8
  %4 = load i64, ptr %3, align 8, !tbaa !23
  %5 = icmp eq i64 %4, 4
  br i1 %5, label %6, label %8

6:                                                ; preds = %1
  %7 = load i64, ptr @rb_eArgError, align 8, !tbaa !10
  tail call void (i64, ptr, ...) @rb_raise(i64 noundef %7, ptr noundef nonnull @.str.66) #14
  unreachable

8:                                                ; preds = %1
  %9 = load i64, ptr %2, align 8, !tbaa !18
  %10 = and i64 %9, 1
  %.not = icmp eq i64 %10, 0
  br i1 %.not, label %rb_long2num_inline.exit, label %11

11:                                               ; preds = %8
  %12 = getelementptr inbounds nuw i8, ptr %2, i64 48
  %13 = load ptr, ptr %12, align 8, !tbaa !44
  %14 = load i64, ptr %13, align 8, !tbaa !10
  %15 = getelementptr inbounds nuw i8, ptr %2, i64 40
  %16 = load ptr, ptr %15, align 8, !tbaa !43
  %17 = load i64, ptr %16, align 8, !tbaa !10
  %18 = sub nsw i64 %14, %17
  %19 = add i64 %18, 4611686018427387904
  %or.cond.i = icmp sgt i64 %19, -1
  br i1 %or.cond.i, label %20, label %23

20:                                               ; preds = %11
  %21 = shl nsw i64 %18, 1
  %22 = or disjoint i64 %21, 1
  br label %rb_long2num_inline.exit

23:                                               ; preds = %11
  %24 = tail call i64 @rb_int2big(i64 noundef %18) #12
  br label %rb_long2num_inline.exit

rb_long2num_inline.exit:                          ; preds = %23, %20, %8
  %.0 = phi i64 [ 4, %8 ], [ %22, %20 ], [ %24, %23 ]
  ret i64 %.0
}